target datalayout = "e-m:e-p270:32:32-p271:32:32-p272:64:64-i64:64-i128:128-f80:128-n8:16:32:64-S128"
target triple = "x86_64-unknown-linux-gnu"

%"class.llvh::StringRef" = type { ptr, i64 }
%"struct.hermes::vm::DurationFormatObj" = type { double }
%"class.llvh::format_object" = type { %"class.llvh::format_object_base", %"class.std::tuple.97" }
%"class.llvh::format_object_base" = type { ptr, ptr }
%"class.std::tuple.97" = type { %"struct.std::_Tuple_impl.98" }
%"struct.std::_Tuple_impl.98" = type { %"struct.std::_Head_base.99" }
%"struct.std::_Head_base.99" = type { double }
%"class.llvh::raw_ostream" = type <{ ptr, ptr, ptr, ptr, i32, [4 x i8] }>
%"struct.llvh::validate_format_parameters" = type { i8 }

@.str.49 = private unnamed_addr constant [6 x i8] c"%5.3f\00", align 1
@.str.50 = private unnamed_addr constant [3 x i8] c" s\00", align 1
@.str.51 = private unnamed_addr constant [4 x i8] c" ms\00", align 1
@.str.52 = private unnamed_addr constant [4 x i8] c" us\00", align 1
@_ZTVN4llvh13format_objectIJdEEE = linkonce_odr hidden unnamed_addr constant { [4 x ptr] } { [4 x ptr] [ptr null, ptr null, ptr @_ZN4llvh18format_object_base4homeEv, ptr @_ZNK4llvh13format_objectIJdEE7snprintEPcj] }, comdat, align 8
@_ZTVN4llvh18format_object_baseE = external unnamed_addr constant { [4 x ptr] }, align 8

; Function Attrs: mustprogress nounwind uwtable
define linkonce_odr void @_ZNSt10_Head_baseILm0EdLb0EEC2ERKd(ptr noundef nonnull align 8 dereferenceable(8) %this, ptr noundef nonnull align 8 dereferenceable(8) %__h) unnamed_addr #0 comdat align 2 {
entry:
  %this.addr = alloca ptr, align 8
  %__h.addr = alloca ptr, align 8
  store ptr %this, ptr %this.addr, align 8
  store ptr %__h, ptr %__h.addr, align 8
  %this1 = load ptr, ptr %this.addr, align 8
  %_M_head_impl = getelementptr inbounds %"struct.std::_Head_base.99", ptr %this1, i32 0, i32 0
  %0 = load ptr, ptr %__h.addr, align 8
  %1 = load double, ptr %0, align 8
  store double %1, ptr %_M_head_impl, align 8
  ret void
}

; Function Attrs: mustprogress nounwind uwtable
define linkonce_odr void @_ZNSt11_Tuple_implILm0EJdEEC2ERKd(ptr noundef nonnull align 8 dereferenceable(8) %this, ptr noundef nonnull align 8 dereferenceable(8) %__head) unnamed_addr #0 comdat align 2 {
entry:
  %this.addr = alloca ptr, align 8
  %__head.addr = alloca ptr, align 8
  store ptr %this, ptr %this.addr, align 8
  store ptr %__head, ptr %__head.addr, align 8
  %this1 = load ptr, ptr %this.addr, align 8
  %0 = load ptr, ptr %__head.addr, align 8
  call void @_ZNSt10_Head_baseILm0EdLb0EEC2ERKd(ptr noundef nonnull align 8 dereferenceable(8) %this1, ptr noundef nonnull align 8 dereferenceable(8) %0)
  ret void
}

; Function Attrs: mustprogress nounwind uwtable
define linkonce_odr hidden void @_ZN4llvh26validate_format_parametersIJdEEC2Ev(ptr noundef nonnull align 1 dereferenceable(1) %this) unnamed_addr #0 comdat align 2 {
entry:
  %this.addr = alloca ptr, align 8
  store ptr %this, ptr %this.addr, align 8
  ret void
}

; Function Attrs: mustprogress nounwind uwtable
define linkonce_odr void @_ZNSt5tupleIJdEEC2ILb1ETnNSt9enable_ifIXclsr4_TCCIXT_EEE29__is_implicitly_constructibleIRKdEEEbE4typeELb1EEES4_(ptr noundef nonnull align 8 dereferenceable(8) %this, ptr noundef nonnull align 8 dereferenceable(8) %__elements) unnamed_addr #0 comdat align 2 {
entry:
  %this.addr = alloca ptr, align 8
  %__elements.addr = alloca ptr, align 8
  store ptr %this, ptr %this.addr, align 8
  store ptr %__elements, ptr %__elements.addr, align 8
  %this1 = load ptr, ptr %this.addr, align 8
  %0 = load ptr, ptr %__elements.addr, align 8
  call void @_ZNSt11_Tuple_implILm0EJdEEC2ERKd(ptr noundef nonnull align 8 dereferenceable(8) %this1, ptr noundef nonnull align 8 dereferenceable(8) %0)
  ret void
}

; Function Attrs: mustprogress nounwind uwtable
define linkonce_odr hidden void @_ZN4llvh18format_object_baseC2EPKc(ptr noundef nonnull align 8 dereferenceable(16) %this, ptr noundef %fmt) unnamed_addr #0 comdat align 2 {
entry:
  %this.addr = alloca ptr, align 8
  %fmt.addr = alloca ptr, align 8
  store ptr %this, ptr %this.addr, align 8
  store ptr %fmt, ptr %fmt.addr, align 8
  %this1 = load ptr, ptr %this.addr, align 8
  store ptr getelementptr inbounds ({ [4 x ptr] }, ptr @_ZTVN4llvh18format_object_baseE, i32 0, i32 0, i32 2), ptr %this1, align 8
  %Fmt = getelementptr inbounds %"class.llvh::format_object_base", ptr %this1, i32 0, i32 1
  %0 = load ptr, ptr %fmt.addr, align 8
  store ptr %0, ptr %Fmt, align 8
  ret void
}

; Function Attrs: mustprogress nounwind uwtable
define linkonce_odr hidden noundef nonnull align 8 dereferenceable(36) ptr @_ZN4llvh11raw_ostreamlsENS_9StringRefE(ptr noundef nonnull align 8 dereferenceable(36) %this, ptr %Str.coerce0, i64 %Str.coerce1) #0 comdat align 2 {
entry:
  %this.addr.i11 = alloca ptr, align 8
  %this.addr.i9 = alloca ptr, align 8
  %this.addr.i = alloca ptr, align 8
  %retval = alloca ptr, align 8
  %Str = alloca %"class.llvh::StringRef", align 8
  %this.addr = alloca ptr, align 8
  %Size = alloca i64, align 8
  %0 = getelementptr inbounds { ptr, i64 }, ptr %Str, i32 0, i32 0
  store ptr %Str.coerce0, ptr %0, align 8
  %1 = getelementptr inbounds { ptr, i64 }, ptr %Str, i32 0, i32 1
  store i64 %Str.coerce1, ptr %1, align 8
  store ptr %this, ptr %this.addr, align 8
  %this1 = load ptr, ptr %this.addr, align 8
  store ptr %Str, ptr %this.addr.i, align 8
  %this1.i = load ptr, ptr %this.addr.i, align 8
  %Length.i = getelementptr inbounds %"class.llvh::StringRef", ptr %this1.i, i32 0, i32 1
  %2 = load i64, ptr %Length.i, align 8
  store i64 %2, ptr %Size, align 8
  %3 = load i64, ptr %Size, align 8
  %OutBufEnd = getelementptr inbounds %"class.llvh::raw_ostream", ptr %this1, i32 0, i32 2
  %4 = load ptr, ptr %OutBufEnd, align 8
  %OutBufCur = getelementptr inbounds %"class.llvh::raw_ostream", ptr %this1, i32 0, i32 3
  %5 = load ptr, ptr %OutBufCur, align 8
  %sub.ptr.lhs.cast = ptrtoint ptr %4 to i64
  %sub.ptr.rhs.cast = ptrtoint ptr %5 to i64
  %sub.ptr.sub = sub i64 %sub.ptr.lhs.cast, %sub.ptr.rhs.cast
  %cmp = icmp ugt i64 %3, %sub.ptr.sub
  br i1 %cmp, label %if.then, label %if.end

if.then:                                          ; preds = %entry
  store ptr %Str, ptr %this.addr.i11, align 8
  %this1.i12 = load ptr, ptr %this.addr.i11, align 8
  %6 = load ptr, ptr %this1.i12, align 8
  %7 = load i64, ptr %Size, align 8
  %call3 = call noundef nonnull align 8 dereferenceable(36) ptr @_ZN4llvh11raw_ostream5writeEPKcm(ptr noundef nonnull align 8 dereferenceable(36) %this1, ptr noundef %6, i64 noundef %7)
  store ptr %call3, ptr %retval, align 8
  br label %return

if.end:                                           ; preds = %entry
  %8 = load i64, ptr %Size, align 8
  %tobool = icmp ne i64 %8, 0
  br i1 %tobool, label %if.then4, label %if.end8

if.then4:                                         ; preds = %if.end
  %OutBufCur5 = getelementptr inbounds %"class.llvh::raw_ostream", ptr %this1, i32 0, i32 3
  %9 = load ptr, ptr %OutBufCur5, align 8
  store ptr %Str, ptr %this.addr.i9, align 8
  %this1.i10 = load ptr, ptr %this.addr.i9, align 8
  %10 = load ptr, ptr %this1.i10, align 8
  %11 = load i64, ptr %Size, align 8
  call void @llvm.memcpy.p0.p0.i64(ptr align 1 %9, ptr align 1 %10, i64 %11, i1 false)
  %12 = load i64, ptr %Size, align 8
  %OutBufCur7 = getelementptr inbounds %"class.llvh::raw_ostream", ptr %this1, i32 0, i32 3
  %13 = load ptr, ptr %OutBufCur7, align 8
  %add.ptr = getelementptr inbounds i8, ptr %13, i64 %12
  store ptr %add.ptr, ptr %OutBufCur7, align 8
  br label %if.end8

if.end8:                                          ; preds = %if.then4, %if.end
  store ptr %this1, ptr %retval, align 8
  br label %return

return:                                           ; preds = %if.end8, %if.then
  %14 = load ptr, ptr %retval, align 8
  ret ptr %14
}

; Function Attrs: mustprogress nounwind uwtable
define linkonce_odr hidden void @_ZN4llvh13format_objectIJdEEC2EPKcRKd(ptr noundef nonnull align 8 dereferenceable(24) %this, ptr noundef %fmt, ptr noundef nonnull align 8 dereferenceable(8) %vals) unnamed_addr #0 comdat align 2 {
entry:
  %this.addr = alloca ptr, align 8
  %fmt.addr = alloca ptr, align 8
  %vals.addr = alloca ptr, align 8
  %agg.tmp.ensured = alloca %"struct.llvh::validate_format_parameters", align 1
  store ptr %this, ptr %this.addr, align 8
  store ptr %fmt, ptr %fmt.addr, align 8
  store ptr %vals, ptr %vals.addr, align 8
  %this1 = load ptr, ptr %this.addr, align 8
  %0 = load ptr, ptr %fmt.addr, align 8
  call void @_ZN4llvh18format_object_baseC2EPKc(ptr noundef nonnull align 8 dereferenceable(16) %this1, ptr noundef %0)
  store ptr getelementptr inbounds ({ [4 x ptr] }, ptr @_ZTVN4llvh13format_objectIJdEEE, i32 0, i32 0, i32 2), ptr %this1, align 8
  %Vals = getelementptr inbounds %"class.llvh::format_object", ptr %this1, i32 0, i32 1
  %1 = load ptr, ptr %vals.addr, align 8
  call void @_ZNSt5tupleIJdEEC2ILb1ETnNSt9enable_ifIXclsr4_TCCIXT_EEE29__is_implicitly_constructibleIRKdEEEbE4typeELb1EEES4_(ptr noundef nonnull align 8 dereferenceable(8) %Vals, ptr noundef nonnull align 8 dereferenceable(8) %1) #14
  call void @_ZN4llvh26validate_format_parametersIJdEEC2Ev(ptr noundef nonnull align 1 dereferenceable(1) %agg.tmp.ensured)
  ret void
}

; Function Attrs: mustprogress nounwind uwtable
define linkonce_odr hidden noundef nonnull align 8 dereferenceable(36) ptr @_ZN4llvh11raw_ostreamlsEPKc(ptr noundef nonnull align 8 dereferenceable(36) %this, ptr noundef %Str) #0 comdat align 2 {
entry:
  %this.addr.i = alloca ptr, align 8
  %Str.addr.i = alloca ptr, align 8
  %this.addr = alloca ptr, align 8
  %Str.addr = alloca ptr, align 8
  %agg.tmp = alloca %"class.llvh::StringRef", align 8
  store ptr %this, ptr %this.addr, align 8
  store ptr %Str, ptr %Str.addr, align 8
  %this1 = load ptr, ptr %this.addr, align 8
  %0 = load ptr, ptr %Str.addr, align 8
  store ptr %agg.tmp, ptr %this.addr.i, align 8
  store ptr %0, ptr %Str.addr.i, align 8
  %this1.i = load ptr, ptr %this.addr.i, align 8
  %1 = load ptr, ptr %Str.addr.i, align 8
  store ptr %1, ptr %this1.i, align 8
  %Length.i = getelementptr inbounds %"class.llvh::StringRef", ptr %this1.i, i32 0, i32 1
  %2 = load ptr, ptr %Str.addr.i, align 8
  %tobool.i = icmp ne ptr %2, null
  br i1 %tobool.i, label %cond.true.i, label %cond.false.i

cond.true.i:                                      ; preds = %entry
  %3 = load ptr, ptr %Str.addr.i, align 8
  %call.i = call i64 @strlen(ptr noundef %3) #16
  br label %_ZN4llvh9StringRefC2EPKc.exit

cond.false.i:                                     ; preds = %entry
  br label %_ZN4llvh9StringRefC2EPKc.exit

_ZN4llvh9StringRefC2EPKc.exit:                    ; preds = %cond.false.i, %cond.true.i
  %cond.i = phi i64 [ %call.i, %cond.true.i ], [ 0, %cond.false.i ]
  store i64 %cond.i, ptr %Length.i, align 8
  %4 = getelementptr inbounds { ptr, i64 }, ptr %agg.tmp, i32 0, i32 0
  %5 = load ptr, ptr %4, align 8
  %6 = getelementptr inbounds { ptr, i64 }, ptr %agg.tmp, i32 0, i32 1
  %7 = load i64, ptr %6, align 8
  %call = call noundef nonnull align 8 dereferenceable(36) ptr @_ZN4llvh11raw_ostreamlsENS_9StringRefE(ptr noundef nonnull align 8 dereferenceable(36) %this1, ptr %5, i64 %7)
  ret ptr %call
}

; Function Attrs: mustprogress nounwind uwtable
define linkonce_odr hidden void @_ZN4llvh6formatIJdEEENS_13format_objectIJDpT_EEEPKcDpRKS2_(ptr noalias sret(%"class.llvh::format_object") align 8 %agg.result, ptr noundef %Fmt, ptr noundef nonnull align 8 dereferenceable(8) %Vals) #0 comdat {
entry:
  %result.ptr = alloca ptr, align 8
  %Fmt.addr = alloca ptr, align 8
  %Vals.addr = alloca ptr, align 8
  store ptr %agg.result, ptr %result.ptr, align 8
  store ptr %Fmt, ptr %Fmt.addr, align 8
  store ptr %Vals, ptr %Vals.addr, align 8
  %0 = load ptr, ptr %Fmt.addr, align 8
  %1 = load ptr, ptr %Vals.addr, align 8
  call void @_ZN4llvh13format_objectIJdEEC2EPKcRKd(ptr noundef nonnull align 8 dereferenceable(24) %agg.result, ptr noundef %0, ptr noundef nonnull align 8 dereferenceable(8) %1)
  ret void
}

; Function Attrs: mustprogress nounwind uwtable
define hidden noundef nonnull align 8 dereferenceable(36) ptr @_ZN6hermes2vmlsERN4llvh11raw_ostreamERKNS0_17DurationFormatObjE(ptr noundef nonnull align 8 dereferenceable(36) %os, ptr noundef nonnull align 8 dereferenceable(8) %dfo) #0 {
entry:
  %os.addr = alloca ptr, align 8
  %dfo.addr = alloca ptr, align 8
  %ref.tmp = alloca %"class.llvh::format_object", align 8
  %ref.tmp6 = alloca %"class.llvh::format_object", align 8
  %ref.tmp7 = alloca double, align 8
  %ref.tmp12 = alloca %"class.llvh::format_object", align 8
  %ref.tmp13 = alloca double, align 8
  store ptr %os, ptr %os.addr, align 8
  store ptr %dfo, ptr %dfo.addr, align 8
  %0 = load ptr, ptr %dfo.addr, align 8
  %secs = getelementptr inbounds %"struct.hermes::vm::DurationFormatObj", ptr %0, i32 0, i32 0
  %1 = load double, ptr %secs, align 8
  %cmp = fcmp oge double %1, 1.000000e+00
  br i1 %cmp, label %if.then, label %if.else

if.then:                                          ; preds = %entry
  %2 = load ptr, ptr %os.addr, align 8
  %3 = load ptr, ptr %dfo.addr, align 8
  %secs1 = getelementptr inbounds %"struct.hermes::vm::DurationFormatObj", ptr %3, i32 0, i32 0
  call void @_ZN4llvh6formatIJdEEENS_13format_objectIJDpT_EEEPKcDpRKS2_(ptr sret(%"class.llvh::format_object") align 8 %ref.tmp, ptr noundef @.str.49, ptr noundef nonnull align 8 dereferenceable(8) %secs1)
  %call = call noundef nonnull align 8 dereferenceable(36) ptr @_ZN4llvh11raw_ostreamlsERKNS_18format_object_baseE(ptr noundef nonnull align 8 dereferenceable(36) %2, ptr noundef nonnull align 8 dereferenceable(16) %ref.tmp)
  %call2 = call noundef nonnull align 8 dereferenceable(36) ptr @_ZN4llvh11raw_ostreamlsEPKc(ptr noundef nonnull align 8 dereferenceable(36) %call, ptr noundef @.str.50)
  br label %if.end18

if.else:                                          ; preds = %entry
  %4 = load ptr, ptr %dfo.addr, align 8
  %secs3 = getelementptr inbounds %"struct.hermes::vm::DurationFormatObj", ptr %4, i32 0, i32 0
  %5 = load double, ptr %secs3, align 8
  %cmp4 = fcmp oge double %5, 1.000000e-03
  br i1 %cmp4, label %if.then5, label %if.else11

if.then5:                                         ; preds = %if.else
  %6 = load ptr, ptr %os.addr, align 8
  %7 = load ptr, ptr %dfo.addr, align 8
  %secs8 = getelementptr inbounds %"struct.hermes::vm::DurationFormatObj", ptr %7, i32 0, i32 0
  %8 = load double, ptr %secs8, align 8
  %mul = fmul double %8, 1.000000e+03
  store double %mul, ptr %ref.tmp7, align 8
  call void @_ZN4llvh6formatIJdEEENS_13format_objectIJDpT_EEEPKcDpRKS2_(ptr sret(%"class.llvh::format_object") align 8 %ref.tmp6, ptr noundef @.str.49, ptr noundef nonnull align 8 dereferenceable(8) %ref.tmp7)
  %call9 = call noundef nonnull align 8 dereferenceable(36) ptr @_ZN4llvh11raw_ostreamlsERKNS_18format_object_baseE(ptr noundef nonnull align 8 dereferenceable(36) %6, ptr noundef nonnull align 8 dereferenceable(16) %ref.tmp6)
  %call10 = call noundef nonnull align 8 dereferenceable(36) ptr @_ZN4llvh11raw_ostreamlsEPKc(ptr noundef nonnull align 8 dereferenceable(36) %call9, ptr noundef @.str.51)
  br label %if.end

if.else11:                                        ; preds = %if.else
  %9 = load ptr, ptr %os.addr, align 8
  %10 = load ptr, ptr %dfo.addr, align 8
  %secs14 = getelementptr inbounds %"struct.hermes::vm::DurationFormatObj", ptr %10, i32 0, i32 0
  %11 = load double, ptr %secs14, align 8
  %mul15 = fmul double %11, 1.000000e+06
  store double %mul15, ptr %ref.tmp13, align 8
  call void @_ZN4llvh6formatIJdEEENS_13format_objectIJDpT_EEEPKcDpRKS2_(ptr sret(%"class.llvh::format_object") align 8 %ref.tmp12, ptr noundef @.str.49, ptr noundef nonnull align 8 dereferenceable(8) %ref.tmp13)
  %call16 = call noundef nonnull align 8 dereferenceable(36) ptr @_ZN4llvh11raw_ostreamlsERKNS_18format_object_baseE(ptr noundef nonnull align 8 dereferenceable(36) %9, ptr noundef nonnull align 8 dereferenceable(16) %ref.tmp12)
  %call17 = call noundef nonnull align 8 dereferenceable(36) ptr @_ZN4llvh11raw_ostreamlsEPKc(ptr noundef nonnull align 8 dereferenceable(36) %call16, ptr noundef @.str.52)
  br label %if.end

if.end:                                           ; preds = %if.else11, %if.then5
  br label %if.end18

if.end18:                                         ; preds = %if.end, %if.then
  %12 = load ptr, ptr %os.addr, align 8
  ret ptr %12
}