; Function Attrs: mustprogress nounwind uwtable
define hidden noundef nonnull align 8 dereferenceable(36) ptr @_ZN6hermes2vmlsERN4llvh11raw_ostreamERKNS0_17DurationFormatObjE(ptr noundef nonnull returned align 8 dereferenceable(36) %os, ptr nocapture noundef nonnull readonly align 8 dereferenceable(8) %dfo) local_unnamed_addr #0 {
entry:
  %ref.tmp = alloca %"class.llvh::format_object", align 8
  %ref.tmp6 = alloca %"class.llvh::format_object", align 8
  %ref.tmp12 = alloca %"class.llvh::format_object", align 8
  %0 = load double, ptr %dfo, align 8
  %cmp = fcmp ult double %0, 1.000000e+00
  br i1 %cmp, label %if.else, label %if.then

if.then:                                          ; preds = %entry
  %Fmt.i.i.i = getelementptr inbounds i8, ptr %ref.tmp, i64 8
  store ptr @.str.49, ptr %Fmt.i.i.i, align 8, !alias.scope !31
  store ptr getelementptr inbounds ({ [4 x ptr] }, ptr @_ZTVN4llvh13format_objectIJdEEE, i64 0, i32 0, i64 2), ptr %ref.tmp, align 8, !alias.scope !31
  %Vals.i.i = getelementptr inbounds i8, ptr %ref.tmp, i64 16
  store double %0, ptr %Vals.i.i, align 8, !alias.scope !31
  %call = call noundef nonnull align 8 dereferenceable(36) ptr @_ZN4llvh11raw_ostreamlsERKNS_18format_object_baseE(ptr noundef nonnull align 8 dereferenceable(36) %os, ptr noundef nonnull align 8 dereferenceable(16) %ref.tmp) #27
  %OutBufEnd.i5.i = getelementptr inbounds i8, ptr %call, i64 16
  %1 = load ptr, ptr %OutBufEnd.i5.i, align 8
  %OutBufCur.i6.i = getelementptr inbounds i8, ptr %call, i64 24
  %2 = load ptr, ptr %OutBufCur.i6.i, align 8
  %sub.ptr.lhs.cast.i7.i = ptrtoint ptr %1 to i64
  %sub.ptr.rhs.cast.i8.i = ptrtoint ptr %2 to i64
  %sub.ptr.sub.i9.i = sub i64 %sub.ptr.lhs.cast.i7.i, %sub.ptr.rhs.cast.i8.i
  %cmp.i.i = icmp ult i64 %sub.ptr.sub.i9.i, 2
  br i1 %cmp.i.i, label %if.then.i.i, label %if.then4.i.i

if.then.i.i:                                      ; preds = %if.then
  %call3.i.i = call noundef nonnull align 8 dereferenceable(36) ptr @_ZN4llvh11raw_ostream5writeEPKcm(ptr noundef nonnull align 8 dereferenceable(36) %call, ptr noundef nonnull @.str.50, i64 noundef 2) #27
  br label %if.end18

if.then4.i.i:                                     ; preds = %if.then
  store i16 29472, ptr %2, align 1
  %3 = load ptr, ptr %OutBufCur.i6.i, align 8
  %add.ptr.i.i = getelementptr inbounds i8, ptr %3, i64 2
  store ptr %add.ptr.i.i, ptr %OutBufCur.i6.i, align 8
  br label %if.end18

if.else:                                          ; preds = %entry
  %cmp4 = fcmp ult double %0, 1.000000e-03
  br i1 %cmp4, label %if.else11, label %if.then5

if.then5:                                         ; preds = %if.else
  %mul = fmul double %0, 1.000000e+03
  %Fmt.i.i.i8 = getelementptr inbounds i8, ptr %ref.tmp6, i64 8
  store ptr @.str.49, ptr %Fmt.i.i.i8, align 8, !alias.scope !34
  store ptr getelementptr inbounds ({ [4 x ptr] }, ptr @_ZTVN4llvh13format_objectIJdEEE, i64 0, i32 0, i64 2), ptr %ref.tmp6, align 8, !alias.scope !34
  %Vals.i.i9 = getelementptr inbounds i8, ptr %ref.tmp6, i64 16
  store double %mul, ptr %Vals.i.i9, align 8, !alias.scope !34
  %call9 = call noundef nonnull align 8 dereferenceable(36) ptr @_ZN4llvh11raw_ostreamlsERKNS_18format_object_baseE(ptr noundef nonnull align 8 dereferenceable(36) %os, ptr noundef nonnull align 8 dereferenceable(16) %ref.tmp6) #27
  %OutBufEnd.i5.i11 = getelementptr inbounds i8, ptr %call9, i64 16
  %4 = load ptr, ptr %OutBufEnd.i5.i11, align 8
  %OutBufCur.i6.i12 = getelementptr inbounds i8, ptr %call9, i64 24
  %5 = load ptr, ptr %OutBufCur.i6.i12, align 8
  %sub.ptr.lhs.cast.i7.i13 = ptrtoint ptr %4 to i64
  %sub.ptr.rhs.cast.i8.i14 = ptrtoint ptr %5 to i64
  %sub.ptr.sub.i9.i15 = sub i64 %sub.ptr.lhs.cast.i7.i13, %sub.ptr.rhs.cast.i8.i14
  %cmp.i.i16 = icmp ult i64 %sub.ptr.sub.i9.i15, 3
  br i1 %cmp.i.i16, label %if.then.i.i22, label %if.then4.i.i19

if.then.i.i22:                                    ; preds = %if.then5
  %call3.i.i23 = call noundef nonnull align 8 dereferenceable(36) ptr @_ZN4llvh11raw_ostream5writeEPKcm(ptr noundef nonnull align 8 dereferenceable(36) %call9, ptr noundef nonnull @.str.51, i64 noundef 3) #27
  br label %if.end18

if.then4.i.i19:                                   ; preds = %if.then5
  call void @llvm.memcpy.p0.p0.i64(ptr noundef nonnull align 1 dereferenceable(3) %5, ptr noundef nonnull align 1 dereferenceable(3) @.str.51, i64 3, i1 false)
  %6 = load ptr, ptr %OutBufCur.i6.i12, align 8
  %add.ptr.i.i20 = getelementptr inbounds i8, ptr %6, i64 3
  store ptr %add.ptr.i.i20, ptr %OutBufCur.i6.i12, align 8
  br label %if.end18

if.else11:                                        ; preds = %if.else
  %mul15 = fmul double %0, 1.000000e+06
  %Fmt.i.i.i25 = getelementptr inbounds i8, ptr %ref.tmp12, i64 8
  store ptr @.str.49, ptr %Fmt.i.i.i25, align 8, !alias.scope !37
  store ptr getelementptr inbounds ({ [4 x ptr] }, ptr @_ZTVN4llvh13format_objectIJdEEE, i64 0, i32 0, i64 2), ptr %ref.tmp12, align 8, !alias.scope !37
  %Vals.i.i26 = getelementptr inbounds i8, ptr %ref.tmp12, i64 16
  store double %mul15, ptr %Vals.i.i26, align 8, !alias.scope !37
  %call16 = call noundef nonnull align 8 dereferenceable(36) ptr @_ZN4llvh11raw_ostreamlsERKNS_18format_object_baseE(ptr noundef nonnull align 8 dereferenceable(36) %os, ptr noundef nonnull align 8 dereferenceable(16) %ref.tmp12) #27
  %OutBufEnd.i5.i28 = getelementptr inbounds i8, ptr %call16, i64 16
  %7 = load ptr, ptr %OutBufEnd.i5.i28, align 8
  %OutBufCur.i6.i29 = getelementptr inbounds i8, ptr %call16, i64 24
  %8 = load ptr, ptr %OutBufCur.i6.i29, align 8
  %sub.ptr.lhs.cast.i7.i30 = ptrtoint ptr %7 to i64
  %sub.ptr.rhs.cast.i8.i31 = ptrtoint ptr %8 to i64
  %sub.ptr.sub.i9.i32 = sub i64 %sub.ptr.lhs.cast.i7.i30, %sub.ptr.rhs.cast.i8.i31
  %cmp.i.i33 = icmp ult i64 %sub.ptr.sub.i9.i32, 3
  br i1 %cmp.i.i33, label %if.then.i.i39, label %if.then4.i.i36

if.then.i.i39:                                    ; preds = %if.else11
  %call3.i.i40 = call noundef nonnull align 8 dereferenceable(36) ptr @_ZN4llvh11raw_ostream5writeEPKcm(ptr noundef nonnull align 8 dereferenceable(36) %call16, ptr noundef nonnull @.str.52, i64 noundef 3) #27
  br label %if.end18

if.then4.i.i36:                                   ; preds = %if.else11
  call void @llvm.memcpy.p0.p0.i64(ptr noundef nonnull align 1 dereferenceable(3) %8, ptr noundef nonnull align 1 dereferenceable(3) @.str.52, i64 3, i1 false)
  %9 = load ptr, ptr %OutBufCur.i6.i29, align 8
  %add.ptr.i.i37 = getelementptr inbounds i8, ptr %9, i64 3
  store ptr %add.ptr.i.i37, ptr %OutBufCur.i6.i29, align 8
  br label %if.end18

if.end18:                                         ; preds = %if.then4.i.i36, %if.then.i.i39, %if.then4.i.i19, %if.then.i.i22, %if.then4.i.i, %if.then.i.i
  ret ptr %os
}